ARM GAS  C:\Users\Heidi\AppData\Local\Temp\ccYpuCWQ.s 			page 1


   1              		.cpu cortex-m0
   2              		.fpu softvfp
   3              		.eabi_attribute 20, 1
   4              		.eabi_attribute 21, 1
   5              		.eabi_attribute 23, 3
   6              		.eabi_attribute 24, 1
   7              		.eabi_attribute 25, 1
   8              		.eabi_attribute 26, 1
   9              		.eabi_attribute 30, 6
  10              		.eabi_attribute 34, 0
  11              		.eabi_attribute 18, 4
  12              		.code	16
  13              		.file	"main.c"
  14              		.text
  15              	.Ltext0:
  16              		.cfi_sections	.debug_frame
  17              		.global	initializeCapSenseBaseline
  18              		.data
  19              		.type	initializeCapSenseBaseline, %object
  20              		.size	initializeCapSenseBaseline, 1
  21              	initializeCapSenseBaseline:
  22 0000 01       		.byte	1
  23              		.section	.text.main,"ax",%progbits
  24              		.align	2
  25              		.global	main
  26              		.code	16
  27              		.thumb_func
  28              		.type	main, %function
  29              	main:
  30              	.LFB35:
  31              		.file 1 ".\\main.c"
   1:.\main.c      **** /*****************************************************************************
   2:.\main.c      **** * File Name: main.c
   3:.\main.c      **** *
   4:.\main.c      **** * Version: 1.0
   5:.\main.c      **** *
   6:.\main.c      **** * Description:
   7:.\main.c      **** * This is the top level application for the PSoC 4 BLE Lab 4.
   8:.\main.c      **** *
   9:.\main.c      **** * Hardware Dependency:
  10:.\main.c      **** * CY8CKIT-042 BLE Pioneer Kit
  11:.\main.c      **** *
  12:.\main.c      **** ******************************************************************************
  13:.\main.c      **** * Copyright (2014), Cypress Semiconductor Corporation.
  14:.\main.c      **** ******************************************************************************
  15:.\main.c      **** * This software is owned by Cypress Semiconductor Corporation (Cypress) and is
  16:.\main.c      **** * protected by and subject to worldwide patent protection (United States and
  17:.\main.c      **** * foreign), United States copyright laws and international treaty provisions.
  18:.\main.c      **** * Cypress hereby grants to licensee a personal, non-exclusive, non-transferable
  19:.\main.c      **** * license to copy, use, modify, create derivative works of, and compile the
  20:.\main.c      **** * Cypress Source Code and derivative works for the sole purpose of creating
  21:.\main.c      **** * custom software in support of licensee product to be used only in conjunction
  22:.\main.c      **** * with a Cypress integrated circuit as specified in the applicable agreement.
  23:.\main.c      **** * Any reproduction, modification, translation, compilation, or representation of
  24:.\main.c      **** * this software except as specified above is prohibited without the express
  25:.\main.c      **** * written permission of Cypress.
  26:.\main.c      **** *
ARM GAS  C:\Users\Heidi\AppData\Local\Temp\ccYpuCWQ.s 			page 2


  27:.\main.c      **** * Disclaimer: CYPRESS MAKES NO WARRANTY OF ANY KIND, EXPRESS OR IMPLIED, WITH
  28:.\main.c      **** * REGARD TO THIS MATERIAL, INCLUDING, BUT NOT LIMITED TO, THE IMPLIED
  29:.\main.c      **** * WARRANTIES OF MERCHANTABILITY AND FITNESS FOR A PARTICULAR PURPOSE.
  30:.\main.c      **** * Cypress reserves the right to make changes without further notice to the
  31:.\main.c      **** * materials described herein. Cypress does not assume any liability arising out
  32:.\main.c      **** * of the application or use of any product or circuit described herein. Cypress
  33:.\main.c      **** * does not authorize its products for use as critical components in life-support
  34:.\main.c      **** * systems where a malfunction or failure may reasonably be expected to result in
  35:.\main.c      **** * significant injury to the user. The inclusion of Cypress' product in a life-
  36:.\main.c      **** * support systems application implies that the manufacturer assumes all risk of
  37:.\main.c      **** * such use and in doing so indemnifies Cypress against all charges. Use may be
  38:.\main.c      **** * limited by and subject to the applicable Cypress software license agreement.
  39:.\main.c      **** *****************************************************************************/
  40:.\main.c      **** 
  41:.\main.c      **** 
  42:.\main.c      **** /*****************************************************************************
  43:.\main.c      **** * Included headers
  44:.\main.c      **** *****************************************************************************/
  45:.\main.c      **** #include <main.h>
  46:.\main.c      **** #include <BLEApplications.h>
  47:.\main.c      **** /*'deviceConnected' flag is used by application to know whether a Central device  
  48:.\main.c      **** * has been connected. This is updated in BLE event callback */
  49:.\main.c      **** extern uint8 deviceConnected;
  50:.\main.c      **** 
  51:.\main.c      **** /*'startNotification' flag is set when the central device writes to CCC (Client  
  52:.\main.c      **** * Characteristic Configuration) of the CapSense proximity characteristic to 
  53:.\main.c      **** * enable notifications */
  54:.\main.c      **** extern uint8 startNotification;	
  55:.\main.c      **** 
  56:.\main.c      **** /* 'restartAdvertisement' flag is used to restart advertisement */
  57:.\main.c      **** extern uint8 restartAdvertisement;
  58:.\main.c      **** 
  59:.\main.c      **** /* 'initializeCapSenseBaseline' flag is used to call the function once that initializes 
  60:.\main.c      **** * all CapSense baseline. The baseline is initialized when the first advertisement 
  61:.\main.c      **** * is started. This is done so that any external disturbance while powering the kit does 
  62:.\main.c      **** * not infliuence the baseline value, that may cause wrong readings. */
  63:.\main.c      **** uint8 initializeCapSenseBaseline = TRUE;
  64:.\main.c      **** 
  65:.\main.c      **** 
  66:.\main.c      **** /*****************************************************************************
  67:.\main.c      **** * Function Prototypes
  68:.\main.c      **** *****************************************************************************/
  69:.\main.c      **** static void InitializeSystem(void);
  70:.\main.c      **** static void HandleCapSenseProximity(void);
  71:.\main.c      **** 
  72:.\main.c      **** 
  73:.\main.c      **** /*****************************************************************************
  74:.\main.c      **** * Public functions
  75:.\main.c      **** *****************************************************************************/
  76:.\main.c      **** 
  77:.\main.c      **** /*******************************************************************************
  78:.\main.c      **** * Function Name: main
  79:.\main.c      **** ********************************************************************************
  80:.\main.c      **** * Summary:
  81:.\main.c      **** * System entrance point. This calls the initializing function and continuously
  82:.\main.c      **** * process BLE and CapSense events.
  83:.\main.c      **** *
ARM GAS  C:\Users\Heidi\AppData\Local\Temp\ccYpuCWQ.s 			page 3


  84:.\main.c      **** * Parameters:
  85:.\main.c      **** *  void
  86:.\main.c      **** *
  87:.\main.c      **** * Return:
  88:.\main.c      **** *  int
  89:.\main.c      **** *
  90:.\main.c      **** *******************************************************************************/
  91:.\main.c      **** int main()
  92:.\main.c      **** {
  32              		.loc 1 92 0
  33              		.cfi_startproc
  34 0000 80B5     		push	{r7, lr}
  35              		.cfi_def_cfa_offset 8
  36              		.cfi_offset 7, -8
  37              		.cfi_offset 14, -4
  38 0002 00AF     		add	r7, sp, #0
  39              		.cfi_def_cfa_register 7
  93:.\main.c      **** 	/* This function will initialize the system resources such as BLE and CapSense */
  94:.\main.c      ****     InitializeSystem();
  40              		.loc 1 94 0
  41 0004 FFF7FEFF 		bl	InitializeSystem
  42              	.L5:
  95:.\main.c      **** 	
  96:.\main.c      ****     for(;;)
  97:.\main.c      ****     {
  98:.\main.c      ****         /*Process event callback to handle BLE events. The events generated and 
  99:.\main.c      **** 		* used for this application are inside the 'CustomEventHandler' routine*/
 100:.\main.c      ****         if(TRUE == deviceConnected) 
  43              		.loc 1 100 0
  44 0008 124B     		ldr	r3, .L6
  45 000a 1B78     		ldrb	r3, [r3]
  46 000c 012B     		cmp	r3, #1
  47 000e 14D1     		bne	.L2
 101:.\main.c      **** 		{
 102:.\main.c      **** 			/* After the connection, send new connection parameter to the Client device 
 103:.\main.c      **** 			* to run the BLE communication on desired interval. This affects the data rate 
 104:.\main.c      **** 			* and power consumption. High connection interval will have lower data rate but 
 105:.\main.c      **** 			* lower power consumption. Low connection interval will have higher data rate at
 106:.\main.c      **** 			* expense of higher power. This function is called only once per connection. */
 107:.\main.c      **** 			UpdateConnectionParam();
  48              		.loc 1 107 0
  49 0010 FFF7FEFF 		bl	UpdateConnectionParam
 108:.\main.c      **** 			
 109:.\main.c      **** 			/* When the Client Characteristic Configuration descriptor (CCCD) is written
 110:.\main.c      **** 			* by Central device for enabling/disabling notifications, then the same
 111:.\main.c      **** 			* descriptor value has to be explicitly updated in application so that
 112:.\main.c      **** 			* it reflects the correct value when the descriptor is read */
 113:.\main.c      **** 			UpdateNotificationCCCD();
  50              		.loc 1 113 0
  51 0014 FFF7FEFF 		bl	UpdateNotificationCCCD
 114:.\main.c      **** 			
 115:.\main.c      **** 			/* If CapSense Initialize Baseline API has not been called yet, call the
 116:.\main.c      **** 			* API and reset the flag. */
 117:.\main.c      **** 			if(initializeCapSenseBaseline)
  52              		.loc 1 117 0
  53 0018 0F4B     		ldr	r3, .L6+4
  54 001a 1B78     		ldrb	r3, [r3]
ARM GAS  C:\Users\Heidi\AppData\Local\Temp\ccYpuCWQ.s 			page 4


  55 001c 002B     		cmp	r3, #0
  56 001e 04D0     		beq	.L3
 118:.\main.c      **** 			{
 119:.\main.c      **** 				/* Reset 'initializeCapSenseBaseline' flag*/
 120:.\main.c      **** 				initializeCapSenseBaseline = FALSE;
  57              		.loc 1 120 0
  58 0020 0D4B     		ldr	r3, .L6+4
  59 0022 0022     		mov	r2, #0
  60 0024 1A70     		strb	r2, [r3]
 121:.\main.c      **** 				
 122:.\main.c      **** 				/* Initialize all CapSense Baseline */
 123:.\main.c      **** 				CapSense_InitializeAllBaselines();
  61              		.loc 1 123 0
  62 0026 FFF7FEFF 		bl	CapSense_InitializeAllBaselines
  63              	.L3:
 124:.\main.c      **** 			}
 125:.\main.c      **** 			
 126:.\main.c      **** 			/* Send proximity data when notifications are enabled */
 127:.\main.c      **** 			if(startNotification & CCCD_NTF_BIT_MASK)
  64              		.loc 1 127 0
  65 002a 0C4B     		ldr	r3, .L6+8
  66 002c 1B78     		ldrb	r3, [r3]
  67 002e 1A1C     		mov	r2, r3
  68 0030 0123     		mov	r3, #1
  69 0032 1340     		and	r3, r2
  70 0034 01D0     		beq	.L2
 128:.\main.c      **** 			{
 129:.\main.c      **** 				/*Check for CapSense proximity change and report to BLE central device*/
 130:.\main.c      **** 				HandleCapSenseProximity();
  71              		.loc 1 130 0
  72 0036 FFF7FEFF 		bl	HandleCapSenseProximity
  73              	.L2:
 131:.\main.c      **** 			}
 132:.\main.c      **** 		}
 133:.\main.c      **** 
 134:.\main.c      **** 		#ifdef ENABLE_LOW_POWER_MODE
 135:.\main.c      **** 			/* Put system to Deep sleep, including BLESS, and wakeup on interrupt. 
 136:.\main.c      **** 			* The source of the interrupt can be either BLESS Link Layer in case of 
 137:.\main.c      **** 			* BLE advertisement and connection or by User Button press during BLE 
 138:.\main.c      **** 			* disconnection */
 139:.\main.c      **** 			HandleLowPowerMode();
 140:.\main.c      **** 		#endif
 141:.\main.c      **** 		
 142:.\main.c      **** 		if(restartAdvertisement)
  74              		.loc 1 142 0
  75 003a 094B     		ldr	r3, .L6+12
  76 003c 1B78     		ldrb	r3, [r3]
  77 003e 002B     		cmp	r3, #0
  78 0040 06D0     		beq	.L4
 143:.\main.c      **** 		{
 144:.\main.c      **** 			/* Reset 'restartAdvertisement' flag*/
 145:.\main.c      **** 			restartAdvertisement = FALSE;
  79              		.loc 1 145 0
  80 0042 074B     		ldr	r3, .L6+12
  81 0044 0022     		mov	r2, #0
  82 0046 1A70     		strb	r2, [r3]
 146:.\main.c      **** 			
ARM GAS  C:\Users\Heidi\AppData\Local\Temp\ccYpuCWQ.s 			page 5


 147:.\main.c      **** 			/* Start Advertisement and enter Discoverable mode*/
 148:.\main.c      **** 			CyBle_GappStartAdvertisement(CYBLE_ADVERTISING_FAST);	
  83              		.loc 1 148 0
  84 0048 0020     		mov	r0, #0
  85 004a FFF7FEFF 		bl	CyBle_GappStartAdvertisement
 149:.\main.c      **** 		}
 150:.\main.c      ****     }	
  86              		.loc 1 150 0
  87 004e DBE7     		b	.L5
  88              	.L4:
  89 0050 DAE7     		b	.L5
  90              	.L7:
  91 0052 C046     		.align	2
  92              	.L6:
  93 0054 00000000 		.word	deviceConnected
  94 0058 00000000 		.word	initializeCapSenseBaseline
  95 005c 00000000 		.word	startNotification
  96 0060 00000000 		.word	restartAdvertisement
  97              		.cfi_endproc
  98              	.LFE35:
  99              		.size	main, .-main
 100              		.section	.text.InitializeSystem,"ax",%progbits
 101              		.align	2
 102              		.code	16
 103              		.thumb_func
 104              		.type	InitializeSystem, %function
 105              	InitializeSystem:
 106              	.LFB36:
 151:.\main.c      **** }
 152:.\main.c      **** 
 153:.\main.c      **** 
 154:.\main.c      **** /*******************************************************************************
 155:.\main.c      **** * Function Name: InitializeSystem
 156:.\main.c      **** ********************************************************************************
 157:.\main.c      **** * Summary:
 158:.\main.c      **** * Start the components and initialize system.
 159:.\main.c      **** *
 160:.\main.c      **** * Parameters:
 161:.\main.c      **** *  void
 162:.\main.c      **** *
 163:.\main.c      **** * Return:
 164:.\main.c      **** *  void
 165:.\main.c      **** *
 166:.\main.c      **** *******************************************************************************/
 167:.\main.c      **** void InitializeSystem(void)
 168:.\main.c      **** {
 107              		.loc 1 168 0
 108              		.cfi_startproc
 109 0000 80B5     		push	{r7, lr}
 110              		.cfi_def_cfa_offset 8
 111              		.cfi_offset 7, -8
 112              		.cfi_offset 14, -4
 113 0002 00AF     		add	r7, sp, #0
 114              		.cfi_def_cfa_register 7
 169:.\main.c      **** 	/* Enable global interrupt mask */
 170:.\main.c      **** 	CyGlobalIntEnable; 
 115              		.loc 1 170 0
ARM GAS  C:\Users\Heidi\AppData\Local\Temp\ccYpuCWQ.s 			page 6


 116              	@ 170 ".\main.c" 1
 117 0004 62B6     		CPSIE   i
 118              	@ 0 "" 2
 171:.\main.c      **** 		
 172:.\main.c      **** 	/* Start BLE component and register the CustomEventHandler function. This 
 173:.\main.c      **** 	 * function exposes the events from BLE component for application use */
 174:.\main.c      ****     CyBle_Start(CustomEventHandler);	
 119              		.loc 1 174 0
 120              		.code	16
 121 0006 114B     		ldr	r3, .L9
 122 0008 181C     		mov	r0, r3
 123 000a FFF7FEFF 		bl	CyBle_Start
 175:.\main.c      ****     
 176:.\main.c      **** 	/* Start both the PrISM components for LED control*/
 177:.\main.c      ****     PRS_1_Start();
 124              		.loc 1 177 0
 125 000e FFF7FEFF 		bl	PRS_1_Start
 178:.\main.c      ****     PRS_2_Start();
 126              		.loc 1 178 0
 127 0012 FFF7FEFF 		bl	PRS_2_Start
 179:.\main.c      **** 	
 180:.\main.c      **** 	/* The RGB LED on BLE Pioneer kit are active low. Drive HIGH on 
 181:.\main.c      **** 	 * pin for OFF and drive LOW on pin for ON*/
 182:.\main.c      **** 	PRS_1_WritePulse0(RGB_LED_OFF);
 128              		.loc 1 182 0
 129 0016 FF20     		mov	r0, #255
 130 0018 FFF7FEFF 		bl	PRS_1_WritePulse0
 183:.\main.c      **** 	PRS_1_WritePulse1(RGB_LED_OFF);
 131              		.loc 1 183 0
 132 001c FF20     		mov	r0, #255
 133 001e FFF7FEFF 		bl	PRS_1_WritePulse1
 184:.\main.c      **** 	PRS_2_WritePulse0(RGB_LED_OFF);
 134              		.loc 1 184 0
 135 0022 FF20     		mov	r0, #255
 136 0024 FFF7FEFF 		bl	PRS_2_WritePulse0
 185:.\main.c      **** 	
 186:.\main.c      **** 	/* Set Drive mode of output pins from HiZ to Strong */
 187:.\main.c      **** 	RED_SetDriveMode(RED_DM_STRONG);
 137              		.loc 1 187 0
 138 0028 0620     		mov	r0, #6
 139 002a FFF7FEFF 		bl	RED_SetDriveMode
 188:.\main.c      **** 	GREEN_SetDriveMode(GREEN_DM_STRONG);
 140              		.loc 1 188 0
 141 002e 0620     		mov	r0, #6
 142 0030 FFF7FEFF 		bl	GREEN_SetDriveMode
 189:.\main.c      **** 	BLUE_SetDriveMode(BLUE_DM_STRONG);
 143              		.loc 1 189 0
 144 0034 0620     		mov	r0, #6
 145 0036 FFF7FEFF 		bl	BLUE_SetDriveMode
 190:.\main.c      ****     
 191:.\main.c      ****     /* Set drive mode of the status LED pin to Strong*/
 192:.\main.c      **** 	//RED_SetDriveMode(RED_DM_STRONG);	
 193:.\main.c      **** 	
 194:.\main.c      ****     
 195:.\main.c      **** 	/* Initialize CapSense component and initialize baselines*/
 196:.\main.c      **** 	
 197:.\main.c      **** 	CapSense_InitializeAllBaselines();
ARM GAS  C:\Users\Heidi\AppData\Local\Temp\ccYpuCWQ.s 			page 7


 146              		.loc 1 197 0
 147 003a FFF7FEFF 		bl	CapSense_InitializeAllBaselines
 198:.\main.c      ****     #ifdef CAPSENSE_ENABLED
 199:.\main.c      **** 	/* Enable the proximity widget explicitly and start CapSense component. 
 200:.\main.c      **** 	* Initialization of the baseline is done when the first connection 
 201:.\main.c      **** 	* happens  */
 202:.\main.c      **** 	CapSense_EnableWidget(CapSense_PROXIMITYSENSOR0__PROX);
 148              		.loc 1 202 0
 149 003e 0020     		mov	r0, #0
 150 0040 FFF7FEFF 		bl	CapSense_EnableWidget
 203:.\main.c      **** 	CapSense_Start();
 151              		.loc 1 203 0
 152 0044 FFF7FEFF 		bl	CapSense_Start
 204:.\main.c      **** 	#endif
 205:.\main.c      **** }
 153              		.loc 1 205 0
 154 0048 BD46     		mov	sp, r7
 155              		@ sp needed
 156 004a 80BD     		pop	{r7, pc}
 157              	.L10:
 158              		.align	2
 159              	.L9:
 160 004c 00000000 		.word	CustomEventHandler
 161              		.cfi_endproc
 162              	.LFE36:
 163              		.size	InitializeSystem, .-InitializeSystem
 164              		.section	.text.HandleCapSenseProximity,"ax",%progbits
 165              		.align	2
 166              		.code	16
 167              		.thumb_func
 168              		.type	HandleCapSenseProximity, %function
 169              	HandleCapSenseProximity:
 170              	.LFB37:
 206:.\main.c      **** 
 207:.\main.c      **** 
 208:.\main.c      **** /**************************f*****************************************************
 209:.\main.c      **** * Function Name: HandleCapSenseSlider
 210:.\main.c      **** ********************************************************************************
 211:.\main.c      **** * Summary:
 212:.\main.c      **** * This function scans for finger position on CapSense slider, and if the  
 213:.\main.c      **** * position is different, triggers separate routine for BLE notification.
 214:.\main.c      **** *
 215:.\main.c      **** * Parameters:
 216:.\main.c      **** *  void
 217:.\main.c      **** *
 218:.\main.c      **** * Return:
 219:.\main.c      **** *  void
 220:.\main.c      **** *
 221:.\main.c      **** *******************************************************************************/
 222:.\main.c      **** void HandleCapSenseProximity(void)
 223:.\main.c      **** {
 171              		.loc 1 223 0
 172              		.cfi_startproc
 173 0000 80B5     		push	{r7, lr}
 174              		.cfi_def_cfa_offset 8
 175              		.cfi_offset 7, -8
 176              		.cfi_offset 14, -4
ARM GAS  C:\Users\Heidi\AppData\Local\Temp\ccYpuCWQ.s 			page 8


 177 0002 82B0     		sub	sp, sp, #8
 178              		.cfi_def_cfa_offset 16
 179 0004 00AF     		add	r7, sp, #0
 180              		.cfi_def_cfa_register 7
 224:.\main.c      **** 	#ifdef CAPSENSE_ENABLED
 225:.\main.c      **** 	/* Static variable used as counter for reading the new proximity value */
 226:.\main.c      **** 	static uint16 proxCounter = TRUE;			
 227:.\main.c      **** 			
 228:.\main.c      **** 	/* Static variable to store last proximity value */
 229:.\main.c      **** 	static uint8 lastProximityValue = MAX_PROX_VALUE;
 230:.\main.c      **** 		
 231:.\main.c      **** 	/* 'proximityValue' stores the proximity value read from CapSense component */
 232:.\main.c      **** 	uint8 proximityValue;
 233:.\main.c      ****     uint8 myData[4];
 234:.\main.c      **** 		
 235:.\main.c      **** 	/* Check if proxCounter has reached its counting value */
 236:.\main.c      **** 	if(FALSE == (--proxCounter))			
 181              		.loc 1 236 0
 182 0006 254B     		ldr	r3, .L14
 183 0008 1B88     		ldrh	r3, [r3]
 184 000a 013B     		sub	r3, r3, #1
 185 000c 9AB2     		uxth	r2, r3
 186 000e 234B     		ldr	r3, .L14
 187 0010 1A80     		strh	r2, [r3]
 188 0012 224B     		ldr	r3, .L14
 189 0014 1B88     		ldrh	r3, [r3]
 190 0016 002B     		cmp	r3, #0
 191 0018 3CD1     		bne	.L11
 237:.\main.c      **** 	{
 238:.\main.c      **** 		/* Set 'proxCounter' to the PROX_COUNTER_VALUE. This counter prevents sending 
 239:.\main.c      **** 		   of large number of CapSense proximity data to BLE Central device */
 240:.\main.c      **** 		proxCounter = PROX_COUNTER_VALUE;
 192              		.loc 1 240 0
 193 001a 204B     		ldr	r3, .L14
 194 001c 0522     		mov	r2, #5
 195 001e 1A80     		strh	r2, [r3]
 241:.\main.c      **** 
 242:.\main.c      **** 		/* Scan the Proximity Widget */
 243:.\main.c      **** 		CapSense_ScanWidget(CapSense_PROXIMITYSENSOR0__PROX);				
 196              		.loc 1 243 0
 197 0020 0020     		mov	r0, #0
 198 0022 FFF7FEFF 		bl	CapSense_ScanWidget
 244:.\main.c      **** 		
 245:.\main.c      **** 		/* Wait for CapSense scanning to be complete. This could take about 5 ms */
 246:.\main.c      **** 		while(CapSense_IsBusy())
 199              		.loc 1 246 0
 200 0026 C046     		mov	r8, r8
 201              	.L13:
 202              		.loc 1 246 0 is_stmt 0 discriminator 1
 203 0028 FFF7FEFF 		bl	CapSense_IsBusy
 204 002c 031C     		mov	r3, r0
 205 002e 002B     		cmp	r3, #0
 206 0030 FAD1     		bne	.L13
 247:.\main.c      **** 		{
 248:.\main.c      **** 		}
 249:.\main.c      **** 		
 250:.\main.c      **** 		/* Update CapSense Baseline */
ARM GAS  C:\Users\Heidi\AppData\Local\Temp\ccYpuCWQ.s 			page 9


 251:.\main.c      **** 		CapSense_UpdateEnabledBaselines();			
 207              		.loc 1 251 0 is_stmt 1
 208 0032 FFF7FEFF 		bl	CapSense_UpdateEnabledBaselines
 252:.\main.c      **** 
 253:.\main.c      **** 		/* Get the Diffcount between proximity raw data and baseline */
 254:.\main.c      **** 		proximityValue = CapSense_GetDiffCountData(CapSense_PROXIMITYSENSOR0__PROX);
 209              		.loc 1 254 0
 210 0036 0020     		mov	r0, #0
 211 0038 FFF7FEFF 		bl	CapSense_GetDiffCountData
 212 003c 031C     		mov	r3, r0
 213 003e 1A1C     		mov	r2, r3
 214 0040 FB1D     		add	r3, r7, #7
 215 0042 1A70     		strb	r2, [r3]
 255:.\main.c      **** 		
 256:.\main.c      **** 		/* Check if the proximity data is different from previous */
 257:.\main.c      **** 		if(lastProximityValue != proximityValue)				
 216              		.loc 1 257 0
 217 0044 164B     		ldr	r3, .L14+4
 218 0046 1A78     		ldrb	r2, [r3]
 219 0048 FB1D     		add	r3, r7, #7
 220 004a 1B78     		ldrb	r3, [r3]
 221 004c 9A42     		cmp	r2, r3
 222 004e 21D0     		beq	.L11
 258:.\main.c      **** 		{
 259:.\main.c      **** 			/* Send the proximity data to BLE central device by notifications*/
 260:.\main.c      **** 			SendDataOverCapSenseNotification(&proximityValue);
 223              		.loc 1 260 0
 224 0050 FB1D     		add	r3, r7, #7
 225 0052 181C     		mov	r0, r3
 226 0054 FFF7FEFF 		bl	SendDataOverCapSenseNotification
 261:.\main.c      ****             myData[0] = proximityValue;  myData[1] = proximityValue/2; myData[2] = proximityValue/4
 227              		.loc 1 261 0
 228 0058 FB1D     		add	r3, r7, #7
 229 005a 1A78     		ldrb	r2, [r3]
 230 005c 3B1C     		mov	r3, r7
 231 005e 1A70     		strb	r2, [r3]
 232 0060 FB1D     		add	r3, r7, #7
 233 0062 1B78     		ldrb	r3, [r3]
 234 0064 5B08     		lsr	r3, r3, #1
 235 0066 DAB2     		uxtb	r2, r3
 236 0068 3B1C     		mov	r3, r7
 237 006a 5A70     		strb	r2, [r3, #1]
 238 006c FB1D     		add	r3, r7, #7
 239 006e 1B78     		ldrb	r3, [r3]
 240 0070 9B08     		lsr	r3, r3, #2
 241 0072 DAB2     		uxtb	r2, r3
 242 0074 3B1C     		mov	r3, r7
 243 0076 9A70     		strb	r2, [r3, #2]
 244 0078 FB1D     		add	r3, r7, #7
 245 007a 1B78     		ldrb	r3, [r3]
 246 007c 3833     		add	r3, r3, #56
 247 007e DAB2     		uxtb	r2, r3
 248 0080 3B1C     		mov	r3, r7
 249 0082 DA70     		strb	r2, [r3, #3]
 262:.\main.c      **** 			SendDataOverCapSenseNotification(myData);
 250              		.loc 1 262 0
 251 0084 3B1C     		mov	r3, r7
ARM GAS  C:\Users\Heidi\AppData\Local\Temp\ccYpuCWQ.s 			page 10


 252 0086 181C     		mov	r0, r3
 253 0088 FFF7FEFF 		bl	SendDataOverCapSenseNotification
 263:.\main.c      **** 			
 264:.\main.c      **** 			/* Update present proximity value */
 265:.\main.c      **** 			lastProximityValue = proximityValue;					
 254              		.loc 1 265 0
 255 008c FB1D     		add	r3, r7, #7
 256 008e 1A78     		ldrb	r2, [r3]
 257 0090 034B     		ldr	r3, .L14+4
 258 0092 1A70     		strb	r2, [r3]
 259              	.L11:
 266:.\main.c      **** 		}
 267:.\main.c      **** 	}
 268:.\main.c      **** 	#endif
 269:.\main.c      **** }
 260              		.loc 1 269 0
 261 0094 BD46     		mov	sp, r7
 262 0096 02B0     		add	sp, sp, #8
 263              		@ sp needed
 264 0098 80BD     		pop	{r7, pc}
 265              	.L15:
 266 009a C046     		.align	2
 267              	.L14:
 268 009c 02000000 		.word	proxCounter.6695
 269 00a0 04000000 		.word	lastProximityValue.6696
 270              		.cfi_endproc
 271              	.LFE37:
 272              		.size	HandleCapSenseProximity, .-HandleCapSenseProximity
 273              		.data
 274 0001 00       		.align	1
 275              		.type	proxCounter.6695, %object
 276              		.size	proxCounter.6695, 2
 277              	proxCounter.6695:
 278 0002 0100     		.short	1
 279              		.type	lastProximityValue.6696, %object
 280              		.size	lastProximityValue.6696, 1
 281              	lastProximityValue.6696:
 282 0004 FF       		.byte	-1
 283 0005 00       		.text
 284              	.Letext0:
 285              		.file 2 ".\\Generated_Source\\PSoC4/cytypes.h"
 286              		.file 3 ".\\Generated_Source\\PSoC4/BLE_Stack.h"